target datalayout = "e-m:e-p270:32:32-p271:32:32-p272:64:64-i64:64-i128:128-f80:128-n8:16:32:64-S128"
target triple = "x86_64-pc-linux-gnu"

%"class.LIEF::DEX::MapList" = type { %"class.LIEF::Object", %"class.std::map" }
%"class.LIEF::Object" = type { ptr }
%"class.std::map" = type { %"class.std::_Rb_tree" }
%"class.std::_Rb_tree" = type { %"struct.std::_Rb_tree<LIEF::DEX::MapItem::TYPES, std::pair<const LIEF::DEX::MapItem::TYPES, LIEF::DEX::MapItem>, std::_Select1st<std::pair<const LIEF::DEX::MapItem::TYPES, LIEF::DEX::MapItem>>, std::less<LIEF::DEX::MapItem::TYPES>>::_Rb_tree_impl" }
%"struct.std::_Rb_tree<LIEF::DEX::MapItem::TYPES, std::pair<const LIEF::DEX::MapItem::TYPES, LIEF::DEX::MapItem>, std::_Select1st<std::pair<const LIEF::DEX::MapItem::TYPES, LIEF::DEX::MapItem>>, std::less<LIEF::DEX::MapItem::TYPES>>::_Rb_tree_impl" = type { [8 x i8], %"struct.std::_Rb_tree_header" }
%"struct.std::_Rb_tree_header" = type { %"struct.std::_Rb_tree_node_base", i64 }
%"struct.std::_Rb_tree_node_base" = type { i32, ptr, ptr, ptr }

@_ZTVN4LIEF3DEX7MapListE = unnamed_addr constant { [7 x ptr] } { [7 x ptr] [ptr null, ptr @_ZTIN4LIEF3DEX7MapListE, ptr @_ZNK4LIEF6ObjecteqERKS0_, ptr @_ZNK4LIEF6ObjectneERKS0_, ptr @_ZN4LIEF3DEX7MapListD1Ev, ptr @_ZN4LIEF3DEX7MapListD0Ev, ptr @_ZNK4LIEF3DEX7MapList6acceptERNS_7VisitorE] }, align 8

; Function Attrs: mustprogress nounwind uwtable
define linkonce_odr hidden noundef ptr @_ZNKSt8_Rb_treeIN4LIEF3DEX7MapItem5TYPESESt4pairIKS3_S2_ESt10_Select1stIS6_ESt4lessIS3_ESaIS6_EE9_M_mbeginEv(ptr noundef nonnull align 8 dereferenceable(48) %0) #1 comdat align 2 {
  %2 = alloca ptr, align 8
  store ptr %0, ptr %2, align 8, !tbaa !67
  %3 = load ptr, ptr %2, align 8
  %4 = getelementptr inbounds nuw %"class.std::_Rb_tree", ptr %3, i32 0, i32 0
  %5 = getelementptr inbounds i8, ptr %4, i64 8
  %6 = getelementptr inbounds nuw %"struct.std::_Rb_tree_header", ptr %5, i32 0, i32 0
  %7 = getelementptr inbounds nuw %"struct.std::_Rb_tree_node_base", ptr %6, i32 0, i32 1
  %8 = load ptr, ptr %7, align 8, !tbaa !83
  ret ptr %8
}

; Function Attrs: mustprogress nounwind uwtable
define linkonce_odr hidden void @_ZNSt15__new_allocatorISt13_Rb_tree_nodeISt4pairIKN4LIEF3DEX7MapItem5TYPESES4_EEED2Ev(ptr noundef nonnull align 1 dereferenceable(1) %0) unnamed_addr #1 comdat align 2 {
  %2 = alloca ptr, align 8
  store ptr %0, ptr %2, align 8, !tbaa !81
  ret void
}

; Function Attrs: mustprogress nounwind uwtable
define linkonce_odr hidden noundef ptr @_ZNSt8_Rb_treeIN4LIEF3DEX7MapItem5TYPESESt4pairIKS3_S2_ESt10_Select1stIS6_ESt4lessIS3_ESaIS6_EE8_M_beginEv(ptr noundef nonnull align 8 dereferenceable(48) %0) #1 comdat align 2 {
  %2 = alloca ptr, align 8
  store ptr %0, ptr %2, align 8, !tbaa !67
  %3 = load ptr, ptr %2, align 8
  %4 = call noundef ptr @_ZNKSt8_Rb_treeIN4LIEF3DEX7MapItem5TYPESESt4pairIKS3_S2_ESt10_Select1stIS6_ESt4lessIS3_ESaIS6_EE9_M_mbeginEv(ptr noundef nonnull align 8 dereferenceable(48) %3) #20
  ret ptr %4
}

; Function Attrs: mustprogress nounwind uwtable
define linkonce_odr hidden void @_ZNSt8_Rb_treeIN4LIEF3DEX7MapItem5TYPESESt4pairIKS3_S2_ESt10_Select1stIS6_ESt4lessIS3_ESaIS6_EED2Ev(ptr noundef nonnull align 8 dereferenceable(48) %0) unnamed_addr #1 comdat align 2 {
  %2 = alloca ptr, align 8
  store ptr %0, ptr %2, align 8, !tbaa !67
  %3 = load ptr, ptr %2, align 8
  %4 = call noundef ptr @_ZNSt8_Rb_treeIN4LIEF3DEX7MapItem5TYPESESt4pairIKS3_S2_ESt10_Select1stIS6_ESt4lessIS3_ESaIS6_EE8_M_beginEv(ptr noundef nonnull align 8 dereferenceable(48) %3) #20
  call void @_ZNSt8_Rb_treeIN4LIEF3DEX7MapItem5TYPESESt4pairIKS3_S2_ESt10_Select1stIS6_ESt4lessIS3_ESaIS6_EE8_M_eraseEPSt13_Rb_tree_nodeIS6_E(ptr noundef nonnull align 8 dereferenceable(48) %3, ptr noundef %4)
  %5 = getelementptr inbounds nuw %"class.std::_Rb_tree", ptr %3, i32 0, i32 0
  call void @_ZNSt15__new_allocatorISt13_Rb_tree_nodeISt4pairIKN4LIEF3DEX7MapItem5TYPESES4_EEED2Ev(ptr noundef nonnull align 8 dereferenceable(48) %5) #20
  ret void
}

; Function Attrs: mustprogress nounwind uwtable
define linkonce_odr hidden void @_ZNSt3mapIN4LIEF3DEX7MapItem5TYPESES2_St4lessIS3_ESaISt4pairIKS3_S2_EEED2Ev(ptr noundef nonnull align 8 dereferenceable(48) %0) unnamed_addr #1 comdat align 2 {
  %2 = alloca ptr, align 8
  store ptr %0, ptr %2, align 8, !tbaa !19
  %3 = load ptr, ptr %2, align 8
  %4 = getelementptr inbounds nuw %"class.std::map", ptr %3, i32 0, i32 0
  call void @_ZNSt8_Rb_treeIN4LIEF3DEX7MapItem5TYPESESt4pairIKS3_S2_ESt10_Select1stIS6_ESt4lessIS3_ESaIS6_EED2Ev(ptr noundef nonnull align 8 dereferenceable(48) %4) #20
  ret void
}

; Function Attrs: mustprogress nounwind uwtable
define void @_ZN4LIEF3DEX7MapListD2Ev(ptr noundef nonnull align 8 dereferenceable(56) %0) unnamed_addr #1 align 2 {
  %2 = alloca ptr, align 8
  store ptr %0, ptr %2, align 8, !tbaa !15
  %3 = load ptr, ptr %2, align 8
  store ptr getelementptr inbounds inrange(-16, 40) ({ [7 x ptr] }, ptr @_ZTVN4LIEF3DEX7MapListE, i32 0, i32 0, i32 2), ptr %3, align 8, !tbaa !17
  %4 = getelementptr inbounds nuw %"class.LIEF::DEX::MapList", ptr %3, i32 0, i32 1
  call void @_ZNSt3mapIN4LIEF3DEX7MapItem5TYPESES2_St4lessIS3_ESaISt4pairIKS3_S2_EEED2Ev(ptr noundef nonnull align 8 dereferenceable(48) %4) #20
  call void @_ZN4LIEF6ObjectD2Ev(ptr noundef nonnull align 8 dereferenceable(8) %3) #20
  ret void
}