; Function Attrs: mustprogress nounwind uwtable
define void @_ZN4LIEF3DEX7MapListD2Ev(ptr noundef nonnull align 8 dereferenceable(56) initializes((0, 8)) %0) unnamed_addr #1 align 2 {
  store ptr getelementptr inbounds nuw inrange(-16, 40) (i8, ptr @_ZTVN4LIEF3DEX7MapListE, i64 16), ptr %0, align 8, !tbaa !3
  %2 = getelementptr inbounds nuw i8, ptr %0, i64 8
  %3 = getelementptr inbounds nuw i8, ptr %0, i64 24
  %4 = load ptr, ptr %3, align 8, !tbaa !14
  tail call void @_ZNSt8_Rb_treeIN4LIEF3DEX7MapItem5TYPESESt4pairIKS3_S2_ESt10_Select1stIS6_ESt4lessIS3_ESaIS6_EE8_M_eraseEPSt13_Rb_tree_nodeIS6_E(ptr noundef nonnull align 8 dereferenceable(48) %2, ptr noundef %4)
  tail call void @_ZN4LIEF6ObjectD2Ev(ptr noundef nonnull align 8 dereferenceable(8) %0) #23
  ret void
}